target datalayout = "e-m:e-p270:32:32-p271:32:32-p272:64:64-i64:64-i128:128-f80:128-n8:16:32:64-S128"
target triple = "x86_64-pc-linux-gnu"

%"class.ceres::internal::SparseMatrixPreconditionerWrapper" = type { %"class.ceres::internal::TypedPreconditioner", ptr, %"struct.ceres::internal::Preconditioner::Options" }
%"class.ceres::internal::TypedPreconditioner" = type { %"class.ceres::internal::Preconditioner" }
%"class.ceres::internal::Preconditioner" = type { %"class.ceres::internal::LinearOperator" }
%"class.ceres::internal::LinearOperator" = type { ptr }
%"struct.ceres::internal::Preconditioner::Options" = type { i32, i32, i32, i32, i32, i32, %"class.std::vector", i32, i32, i32, ptr }
%"class.std::vector" = type { %"struct.std::_Vector_base" }
%"struct.std::_Vector_base" = type { %"struct.std::_Vector_base<int, std::allocator<int>>::_Vector_impl" }
%"struct.std::_Vector_base<int, std::allocator<int>>::_Vector_impl" = type { %"struct.std::_Vector_base<int, std::allocator<int>>::_Vector_impl_data" }
%"struct.std::_Vector_base<int, std::allocator<int>>::_Vector_impl_data" = type { ptr, ptr, ptr }

; Function Attrs: mustprogress uwtable
define hidden noundef i32 @_ZNK5ceres8internal33SparseMatrixPreconditionerWrapper8num_rowsEv(ptr noundef nonnull align 8 dereferenceable(88) %0) unnamed_addr #3 align 2 {
  %2 = alloca ptr, align 8
  store ptr %0, ptr %2, align 8, !tbaa !18
  %3 = load ptr, ptr %2, align 8
  %4 = getelementptr inbounds nuw %"class.ceres::internal::SparseMatrixPreconditionerWrapper", ptr %3, i32 0, i32 1
  %5 = load ptr, ptr %4, align 8, !tbaa !26
  %6 = load ptr, ptr %5, align 8, !tbaa !24
  %7 = getelementptr inbounds ptr, ptr %6, i64 10
  %8 = load ptr, ptr %7, align 8
  %9 = call noundef i32 %8(ptr noundef nonnull align 8 dereferenceable(8) %5)
  ret i32 %9
}