; Function Attrs: mustprogress uwtable
define hidden noundef i32 @_ZNK5ceres8internal33SparseMatrixPreconditionerWrapper8num_rowsEv(ptr noundef nonnull readonly align 8 captures(none) dereferenceable(88) %0) unnamed_addr #4 align 2 {
  %2 = getelementptr inbounds nuw i8, ptr %0, i64 8
  %3 = load ptr, ptr %2, align 8, !tbaa !6
  %4 = load ptr, ptr %3, align 8, !tbaa !3
  %5 = getelementptr inbounds nuw i8, ptr %4, i64 80
  %6 = load ptr, ptr %5, align 8
  %7 = tail call noundef i32 %6(ptr noundef nonnull align 8 dereferenceable(8) %3)
  ret i32 %7
}